; Function Attrs: mustprogress nofree norecurse nosync nounwind willreturn memory(readwrite, inaccessiblemem: none) uwtable
define hidden void @_ZN11G1CardTable16g1_mark_as_youngERK9MemRegion(ptr nocapture noundef nonnull readonly align 8 dereferenceable(104) %0, ptr nocapture noundef nonnull readonly align 8 dereferenceable(16) %1) local_unnamed_addr #0 align 2 {
  %3 = load ptr, ptr %1, align 8
  %4 = getelementptr inbounds i8, ptr %0, i64 48
  %5 = load ptr, ptr %4, align 8
  %6 = ptrtoint ptr %3 to i64
  %7 = load i32, ptr @_ZN9CardTable11_card_shiftE, align 4
  %8 = zext nneg i32 %7 to i64
  %9 = lshr i64 %6, %8
  %10 = getelementptr inbounds i8, ptr %5, i64 %9
  %11 = getelementptr inbounds i8, ptr %1, i64 8
  %12 = load i64, ptr %11, align 8
  %13 = getelementptr inbounds ptr, ptr %3, i64 %12
  %14 = getelementptr inbounds i8, ptr %13, i64 -8
  %15 = ptrtoint ptr %14 to i64
  %16 = lshr i64 %15, %8
  %17 = getelementptr inbounds i8, ptr %5, i64 %16
  %18 = getelementptr inbounds i8, ptr %17, i64 1
  %19 = ptrtoint ptr %18 to i64
  %20 = ptrtoint ptr %10 to i64
  %21 = sub i64 %19, %20
  tail call void @llvm.memset.p0.i64(ptr align 1 %10, i8 2, i64 %21, i1 false)
  ret void
}